target datalayout = "e-m:e-p270:32:32-p271:32:32-p272:64:64-i64:64-i128:128-f80:128-n8:16:32:64-S128"
target triple = "x86_64-pc-linux-gnu"

%"class.std::__cxx11::basic_string" = type { %"struct.std::__cxx11::basic_string<char>::_Alloc_hider", i64, %union.anon }
%"struct.std::__cxx11::basic_string<char>::_Alloc_hider" = type { ptr }
%union.anon = type { i64, [8 x i8] }
%"class.cv::Rect_" = type { i32, i32, i32, i32 }
%"class.cv::detail::tracking::TrackerContribSamplerAlgorithm" = type { %"class.cv::detail::tracking::TrackerSamplerAlgorithm", %"class.std::__cxx11::basic_string" }
%"class.cv::detail::tracking::TrackerSamplerAlgorithm" = type { ptr }
%"struct.cv::detail::tracking::TrackerSamplerCS::Params" = type { float, float }
%"class.cv::detail::tracking::TrackerSamplerCS" = type <{ %"class.cv::detail::tracking::TrackerContribSamplerAlgorithm", %"struct.cv::detail::tracking::TrackerSamplerCS::Params", i32, %"class.cv::Rect_", %"class.cv::Rect_", %"class.cv::Rect_", [4 x i8] }>

; Function Attrs: mustprogress nounwind uwtable
define { i64, i64 } @_ZNK2cv6detail8tracking16TrackerSamplerCS6getROIEv(ptr noundef nonnull align 8 dereferenceable(100) %0) #8 align 2 {
  %2 = alloca %"class.cv::Rect_", align 4
  %3 = alloca ptr, align 8
  store ptr %0, ptr %3, align 8, !tbaa !150
  %4 = load ptr, ptr %3, align 8
  %5 = getelementptr inbounds nuw %"class.cv::detail::tracking::TrackerSamplerCS", ptr %4, i32 0, i32 5
  call void @llvm.memcpy.p0.p0.i64(ptr align 4 %2, ptr align 4 %5, i64 16, i1 false), !tbaa.struct !139
  %6 = load { i64, i64 }, ptr %2, align 4
  ret { i64, i64 } %6
}