; Function Attrs: mustprogress nofree norecurse nosync nounwind willreturn memory(argmem: read) uwtable
define { i64, i64 } @_ZNK2cv6detail8tracking16TrackerSamplerCS6getROIEv(ptr noundef nonnull readonly align 8 captures(none) dereferenceable(100) %0) local_unnamed_addr #11 align 2 {
  %2 = getelementptr inbounds nuw i8, ptr %0, i64 84
  %.sroa.0.0.copyload = load i64, ptr %2, align 4
  %.sroa.2.0..sroa_idx = getelementptr inbounds nuw i8, ptr %0, i64 92
  %.sroa.2.0.copyload = load i64, ptr %.sroa.2.0..sroa_idx, align 4
  %.fca.0.insert = insertvalue { i64, i64 } poison, i64 %.sroa.0.0.copyload, 0
  %.fca.1.insert = insertvalue { i64, i64 } %.fca.0.insert, i64 %.sroa.2.0.copyload, 1
  ret { i64, i64 } %.fca.1.insert
}